target datalayout = "e-m:e-p270:32:32-p271:32:32-p272:64:64-i64:64-i128:128-f80:128-n8:16:32:64-S128"
target triple = "x86_64-pc-linux-gnu"

%struct._GtkTreeIter = type { i32, ptr, ptr, ptr }
%struct.node_info_msg = type { i64, i32, ptr }
%struct.sview_node_info_t = type { ptr, ptr, %struct._GtkTreeIter, i8, ptr, ptr, i32, ptr, ptr, ptr }
%struct.node_info = type { ptr, ptr, i16, i64, ptr, i16, i16, i32, i32, i64, i16, i16, ptr, ptr, ptr, ptr, ptr, ptr, ptr, ptr, ptr, ptr, i64, ptr, i64, ptr, i32, ptr, ptr, i32, ptr, i32, ptr, i16, i64, i16, ptr, ptr, ptr, i64, i32, i64, ptr, ptr, i64, i16, i16, i32, i32, ptr, ptr }

@create_node_info_list.info_list = internal global ptr null, align 8
@create_node_info_list.last_node_info_ptr = internal global ptr null, align 8
@.str = private unnamed_addr constant [12 x i8] c"node_info.c\00", align 1
@__func__.create_node_info_list = private unnamed_addr constant [22 x i8] c"create_node_info_list\00", align 1
@.str.1 = private unnamed_addr constant [11 x i8] c"%s [%s@%s]\00", align 1

; Function Attrs: nounwind uwtable
define internal void @_node_info_free(ptr noundef %0) #0 {
  %2 = alloca ptr, align 8
  store ptr %0, ptr %2, align 8
  %3 = load ptr, ptr %2, align 8
  %4 = icmp ne ptr %3, null
  br i1 %4, label %5, label %16

5:                                                ; preds = %1
  %6 = load ptr, ptr %2, align 8
  %7 = getelementptr inbounds nuw %struct.sview_node_info_t, ptr %6, i32 0, i32 9
  call void @slurm_xfree(ptr noundef %7)
  %8 = load ptr, ptr %2, align 8
  %9 = getelementptr inbounds nuw %struct.sview_node_info_t, ptr %8, i32 0, i32 0
  call void @slurm_xfree(ptr noundef %9)
  %10 = load ptr, ptr %2, align 8
  %11 = getelementptr inbounds nuw %struct.sview_node_info_t, ptr %10, i32 0, i32 4
  call void @slurm_xfree(ptr noundef %11)
  %12 = load ptr, ptr %2, align 8
  %13 = getelementptr inbounds nuw %struct.sview_node_info_t, ptr %12, i32 0, i32 8
  call void @slurm_xfree(ptr noundef %13)
  %14 = load ptr, ptr %2, align 8
  %15 = getelementptr inbounds nuw %struct.sview_node_info_t, ptr %14, i32 0, i32 7
  call void @slurm_xfree(ptr noundef %15)
  br label %16

16:                                               ; preds = %5, %1
  ret void
}

; Function Attrs: nounwind uwtable
define dso_local ptr @create_node_info_list(ptr noundef %0, i1 noundef zeroext %1) #0 {
  %3 = alloca ptr, align 8
  %4 = alloca i8, align 1
  %5 = alloca ptr, align 8
  %6 = alloca ptr, align 8
  %7 = alloca i32, align 4
  %8 = alloca ptr, align 8
  %9 = alloca ptr, align 8
  %10 = alloca [256 x i8], align 16
  %11 = alloca ptr, align 8
  store ptr %0, ptr %3, align 8
  %12 = zext i1 %1 to i8
  store i8 %12, ptr %4, align 1
  call void @llvm.lifetime.start.p0(i64 8, ptr %5) #7
  store ptr null, ptr %5, align 8
  call void @llvm.lifetime.start.p0(i64 8, ptr %6) #7
  store ptr null, ptr %6, align 8
  call void @llvm.lifetime.start.p0(i64 4, ptr %7) #7
  store i32 0, ptr %7, align 4
  call void @llvm.lifetime.start.p0(i64 8, ptr %8) #7
  store ptr null, ptr %8, align 8
  call void @llvm.lifetime.start.p0(i64 8, ptr %9) #7
  store ptr null, ptr %9, align 8
  call void @llvm.lifetime.start.p0(i64 256, ptr %10) #7
  %13 = load i8, ptr %4, align 1, !range !12, !noundef !13
  %14 = trunc i8 %13 to i1
  br i1 %14, label %27, label %15

15:                                               ; preds = %2
  %16 = load ptr, ptr %3, align 8
  %17 = icmp ne ptr %16, null
  br i1 %17, label %18, label %25

18:                                               ; preds = %15
  %19 = load ptr, ptr @create_node_info_list.info_list, align 8
  %20 = icmp ne ptr %19, null
  br i1 %20, label %21, label %26

21:                                               ; preds = %18
  %22 = load ptr, ptr %3, align 8
  %23 = load ptr, ptr @create_node_info_list.last_node_info_ptr, align 8
  %24 = icmp eq ptr %22, %23
  br i1 %24, label %25, label %26

25:                                               ; preds = %21, %15
  br label %198

26:                                               ; preds = %21, %18
  br label %27

27:                                               ; preds = %26, %2
  %28 = load ptr, ptr %3, align 8
  store ptr %28, ptr @create_node_info_list.last_node_info_ptr, align 8
  %29 = load ptr, ptr @create_node_info_list.info_list, align 8
  %30 = icmp ne ptr %29, null
  br i1 %30, label %31, label %33

31:                                               ; preds = %27
  %32 = load ptr, ptr @create_node_info_list.info_list, align 8
  store ptr %32, ptr %5, align 8
  br label %33

33:                                               ; preds = %31, %27
  %34 = call ptr @list_create(ptr noundef @_node_info_list_del)
  store ptr %34, ptr @create_node_info_list.info_list, align 8
  %35 = load ptr, ptr %5, align 8
  %36 = icmp ne ptr %35, null
  br i1 %36, label %37, label %40

37:                                               ; preds = %33
  %38 = load ptr, ptr %5, align 8
  %39 = call ptr @list_iterator_create(ptr noundef %38)
  store ptr %39, ptr %6, align 8
  br label %40

40:                                               ; preds = %37, %33
  store i32 0, ptr %7, align 4
  br label %41

41:                                               ; preds = %181, %40
  %42 = load i32, ptr %7, align 4
  %43 = load ptr, ptr %3, align 8
  %44 = getelementptr inbounds nuw %struct.node_info_msg, ptr %43, i32 0, i32 1
  %45 = load i32, ptr %44, align 8
  %46 = icmp ult i32 %42, %45
  br i1 %46, label %47, label %184

47:                                               ; preds = %41
  %48 = load ptr, ptr %3, align 8
  %49 = getelementptr inbounds nuw %struct.node_info_msg, ptr %48, i32 0, i32 2
  %50 = load ptr, ptr %49, align 8
  %51 = load i32, ptr %7, align 4
  %52 = sext i32 %51 to i64
  %53 = getelementptr inbounds %struct.node_info, ptr %50, i64 %52
  store ptr %53, ptr %9, align 8
  %54 = load ptr, ptr %9, align 8
  %55 = getelementptr inbounds nuw %struct.node_info, ptr %54, i32 0, i32 25
  %56 = load ptr, ptr %55, align 8
  %57 = icmp ne ptr %56, null
  br i1 %57, label %58, label %66

58:                                               ; preds = %47
  %59 = load ptr, ptr %9, align 8
  %60 = getelementptr inbounds nuw %struct.node_info, ptr %59, i32 0, i32 25
  %61 = load ptr, ptr %60, align 8
  %62 = getelementptr inbounds i8, ptr %61, i64 0
  %63 = load i8, ptr %62, align 1
  %64 = sext i8 %63 to i32
  %65 = icmp eq i32 %64, 0
  br i1 %65, label %66, label %67

66:                                               ; preds = %58, %47
  br label %181

67:                                               ; preds = %58
  store ptr null, ptr %8, align 8
  %68 = load ptr, ptr %6, align 8
  %69 = icmp ne ptr %68, null
  br i1 %69, label %70, label %91

70:                                               ; preds = %67
  br label %71

71:                                               ; preds = %88, %70
  %72 = load ptr, ptr %6, align 8
  %73 = call ptr @list_next(ptr noundef %72)
  store ptr %73, ptr %8, align 8
  %74 = icmp ne ptr %73, null
  br i1 %74, label %75, label %89

75:                                               ; preds = %71
  %76 = load ptr, ptr %8, align 8
  %77 = getelementptr inbounds nuw %struct.sview_node_info_t, ptr %76, i32 0, i32 4
  %78 = load ptr, ptr %77, align 8
  %79 = load ptr, ptr %9, align 8
  %80 = getelementptr inbounds nuw %struct.node_info, ptr %79, i32 0, i32 25
  %81 = load ptr, ptr %80, align 8
  %82 = call i32 @xstrcmp(ptr noundef %78, ptr noundef %81)
  %83 = icmp ne i32 %82, 0
  br i1 %83, label %88, label %84

84:                                               ; preds = %75
  %85 = load ptr, ptr %6, align 8
  %86 = call ptr @list_remove(ptr noundef %85)
  %87 = load ptr, ptr %8, align 8
  call void @_node_info_free(ptr noundef %87)
  br label %89

88:                                               ; preds = %75
  br label %71, !llvm.loop !14

89:                                               ; preds = %84, %71
  %90 = load ptr, ptr %6, align 8
  call void @list_iterator_reset(ptr noundef %90)
  br label %91

91:                                               ; preds = %89, %67
  %92 = load ptr, ptr %8, align 8
  %93 = icmp ne ptr %92, null
  br i1 %93, label %96, label %94

94:                                               ; preds = %91
  %95 = call ptr @slurm_xcalloc(i64 noundef 1, i64 noundef 104, i1 noundef zeroext true, i1 noundef zeroext false, ptr noundef @.str, i32 noundef 896, ptr noundef @__func__.create_node_info_list)
  store ptr %95, ptr %8, align 8
  br label %96

96:                                               ; preds = %94, %91
  %97 = load ptr, ptr @create_node_info_list.info_list, align 8
  %98 = load ptr, ptr %8, align 8
  call void @list_append(ptr noundef %97, ptr noundef %98)
  %99 = load ptr, ptr %9, align 8
  %100 = getelementptr inbounds nuw %struct.node_info, ptr %99, i32 0, i32 25
  %101 = load ptr, ptr %100, align 8
  %102 = call ptr @xstrdup(ptr noundef %101)
  %103 = load ptr, ptr %8, align 8
  %104 = getelementptr inbounds nuw %struct.sview_node_info_t, ptr %103, i32 0, i32 4
  store ptr %102, ptr %104, align 8
  %105 = load ptr, ptr %9, align 8
  %106 = load ptr, ptr %8, align 8
  %107 = getelementptr inbounds nuw %struct.sview_node_info_t, ptr %106, i32 0, i32 5
  store ptr %105, ptr %107, align 8
  %108 = load i32, ptr %7, align 4
  %109 = load ptr, ptr %8, align 8
  %110 = getelementptr inbounds nuw %struct.sview_node_info_t, ptr %109, i32 0, i32 6
  store i32 %108, ptr %110, align 8
  %111 = load ptr, ptr %9, align 8
  %112 = getelementptr inbounds nuw %struct.node_info, ptr %111, i32 0, i32 38
  %113 = load ptr, ptr %112, align 8
  %114 = icmp ne ptr %113, null
  br i1 %114, label %115, label %141

115:                                              ; preds = %96
  %116 = load ptr, ptr %9, align 8
  %117 = getelementptr inbounds nuw %struct.node_info, ptr %116, i32 0, i32 40
  %118 = load i32, ptr %117, align 8
  %119 = icmp ne i32 %118, -2
  br i1 %119, label %120, label %141

120:                                              ; preds = %115
  %121 = load ptr, ptr %9, align 8
  %122 = getelementptr inbounds nuw %struct.node_info, ptr %121, i32 0, i32 39
  %123 = load i64, ptr %122, align 8
  %124 = icmp ne i64 %123, 0
  br i1 %124, label %125, label %141

125:                                              ; preds = %120
  call void @llvm.lifetime.start.p0(i64 8, ptr %11) #7
  %126 = load ptr, ptr %9, align 8
  %127 = getelementptr inbounds nuw %struct.node_info, ptr %126, i32 0, i32 40
  %128 = load i32, ptr %127, align 8
  %129 = call ptr @uid_to_string(i32 noundef %128)
  store ptr %129, ptr %11, align 8
  %130 = load ptr, ptr %9, align 8
  %131 = getelementptr inbounds nuw %struct.node_info, ptr %130, i32 0, i32 39
  %132 = getelementptr inbounds [256 x i8], ptr %10, i64 0, i64 0
  call void @slurm_make_time_str(ptr noundef %131, ptr noundef %132, i32 noundef 256)
  %133 = load ptr, ptr %9, align 8
  %134 = getelementptr inbounds nuw %struct.node_info, ptr %133, i32 0, i32 38
  %135 = load ptr, ptr %134, align 8
  %136 = load ptr, ptr %11, align 8
  %137 = getelementptr inbounds [256 x i8], ptr %10, i64 0, i64 0
  %138 = call ptr (ptr, ...) @xstrdup_printf(ptr noundef @.str.1, ptr noundef %135, ptr noundef %136, ptr noundef %137)
  %139 = load ptr, ptr %8, align 8
  %140 = getelementptr inbounds nuw %struct.sview_node_info_t, ptr %139, i32 0, i32 7
  store ptr %138, ptr %140, align 8
  call void @slurm_xfree(ptr noundef %11)
  call void @llvm.lifetime.end.p0(i64 8, ptr %11) #7
  br label %154

141:                                              ; preds = %120, %115, %96
  %142 = load ptr, ptr %9, align 8
  %143 = getelementptr inbounds nuw %struct.node_info, ptr %142, i32 0, i32 38
  %144 = load ptr, ptr %143, align 8
  %145 = icmp ne ptr %144, null
  br i1 %145, label %146, label %153

146:                                              ; preds = %141
  %147 = load ptr, ptr %9, align 8
  %148 = getelementptr inbounds nuw %struct.node_info, ptr %147, i32 0, i32 38
  %149 = load ptr, ptr %148, align 8
  %150 = call ptr @xstrdup(ptr noundef %149)
  %151 = load ptr, ptr %8, align 8
  %152 = getelementptr inbounds nuw %struct.sview_node_info_t, ptr %151, i32 0, i32 7
  store ptr %150, ptr %152, align 8
  br label %153

153:                                              ; preds = %146, %141
  br label %154

154:                                              ; preds = %153, %125
  %155 = load ptr, ptr %9, align 8
  %156 = getelementptr inbounds nuw %struct.node_info, ptr %155, i32 0, i32 3
  %157 = load i64, ptr %156, align 8
  %158 = icmp ne i64 %157, 0
  br i1 %158, label %159, label %167

159:                                              ; preds = %154
  %160 = load ptr, ptr %9, align 8
  %161 = getelementptr inbounds nuw %struct.node_info, ptr %160, i32 0, i32 3
  %162 = getelementptr inbounds [256 x i8], ptr %10, i64 0, i64 0
  call void @slurm_make_time_str(ptr noundef %161, ptr noundef %162, i32 noundef 256)
  %163 = getelementptr inbounds [256 x i8], ptr %10, i64 0, i64 0
  %164 = call ptr @xstrdup(ptr noundef %163)
  %165 = load ptr, ptr %8, align 8
  %166 = getelementptr inbounds nuw %struct.sview_node_info_t, ptr %165, i32 0, i32 0
  store ptr %164, ptr %166, align 8
  br label %167

167:                                              ; preds = %159, %154
  %168 = load ptr, ptr %9, align 8
  %169 = getelementptr inbounds nuw %struct.node_info, ptr %168, i32 0, i32 44
  %170 = load i64, ptr %169, align 8
  %171 = icmp ne i64 %170, 0
  br i1 %171, label %172, label %180

172:                                              ; preds = %167
  %173 = load ptr, ptr %9, align 8
  %174 = getelementptr inbounds nuw %struct.node_info, ptr %173, i32 0, i32 44
  %175 = getelementptr inbounds [256 x i8], ptr %10, i64 0, i64 0
  call void @slurm_make_time_str(ptr noundef %174, ptr noundef %175, i32 noundef 256)
  %176 = getelementptr inbounds [256 x i8], ptr %10, i64 0, i64 0
  %177 = call ptr @xstrdup(ptr noundef %176)
  %178 = load ptr, ptr %8, align 8
  %179 = getelementptr inbounds nuw %struct.sview_node_info_t, ptr %178, i32 0, i32 9
  store ptr %177, ptr %179, align 8
  br label %180

180:                                              ; preds = %172, %167
  br label %181

181:                                              ; preds = %180, %66
  %182 = load i32, ptr %7, align 4
  %183 = add nsw i32 %182, 1
  store i32 %183, ptr %7, align 4
  br label %41, !llvm.loop !15

184:                                              ; preds = %41
  %185 = load ptr, ptr %5, align 8
  %186 = icmp ne ptr %185, null
  br i1 %186, label %187, label %197

187:                                              ; preds = %184
  %188 = load ptr, ptr %6, align 8
  call void @list_iterator_destroy(ptr noundef %188)
  br label %189

189:                                              ; preds = %187
  %190 = load ptr, ptr %5, align 8
  %191 = icmp ne ptr %190, null
  br i1 %191, label %192, label %194

192:                                              ; preds = %189
  %193 = load ptr, ptr %5, align 8
  call void @list_destroy(ptr noundef %193)
  br label %194

194:                                              ; preds = %192, %189
  store ptr null, ptr %5, align 8
  br label %195

195:                                              ; preds = %194
  br label %196

196:                                              ; preds = %195
  br label %197

197:                                              ; preds = %196, %184
  br label %198

198:                                              ; preds = %197, %25
  %199 = load ptr, ptr @create_node_info_list.info_list, align 8
  call void @llvm.lifetime.end.p0(i64 256, ptr %10) #7
  call void @llvm.lifetime.end.p0(i64 8, ptr %9) #7
  call void @llvm.lifetime.end.p0(i64 8, ptr %8) #7
  call void @llvm.lifetime.end.p0(i64 4, ptr %7) #7
  call void @llvm.lifetime.end.p0(i64 8, ptr %6) #7
  call void @llvm.lifetime.end.p0(i64 8, ptr %5) #7
  ret ptr %199
}