; Function Attrs: nounwind uwtable
define dso_local ptr @create_node_info_list(ptr noundef %0, i1 noundef zeroext %1) local_unnamed_addr #0 {
  %3 = alloca [256 x i8], align 16
  %4 = alloca ptr, align 8
  call void @llvm.lifetime.start.p0(i64 256, ptr nonnull %3) #11
  br i1 %1, label %thread-pre-split, label %5

5:                                                ; preds = %2
  %.not = icmp eq ptr %0, null
  br i1 %.not, label %82, label %6

6:                                                ; preds = %5
  %7 = load ptr, ptr @create_node_info_list.info_list, align 8
  %.not55 = icmp ne ptr %7, null
  %8 = load ptr, ptr @create_node_info_list.last_node_info_ptr, align 8
  %9 = icmp eq ptr %0, %8
  %or.cond = select i1 %.not55, i1 %9, i1 false
  br i1 %or.cond, label %82, label %10

thread-pre-split:                                 ; preds = %2
  %.pr = load ptr, ptr @create_node_info_list.info_list, align 8
  br label %10

10:                                               ; preds = %thread-pre-split, %6
  %11 = phi ptr [ %.pr, %thread-pre-split ], [ %7, %6 ]
  store ptr %0, ptr @create_node_info_list.last_node_info_ptr, align 8
  %.not56 = icmp eq ptr %11, null
  %12 = tail call ptr @list_create(ptr noundef nonnull @_node_info_list_del) #11
  store ptr %12, ptr @create_node_info_list.info_list, align 8
  br i1 %.not56, label %15, label %13

13:                                               ; preds = %10
  %14 = tail call ptr @list_iterator_create(ptr noundef nonnull %11) #11
  br label %15

15:                                               ; preds = %13, %10
  %.048 = phi ptr [ %14, %13 ], [ null, %10 ]
  %16 = getelementptr inbounds nuw i8, ptr %0, i64 8
  %17 = load i32, ptr %16, align 8
  %.not78 = icmp eq i32 %17, 0
  br i1 %.not78, label %._crit_edge, label %.lr.ph

.lr.ph:                                           ; preds = %15
  %18 = getelementptr inbounds nuw i8, ptr %0, i64 16
  %.not59 = icmp eq ptr %.048, null
  br label %19

19:                                               ; preds = %.lr.ph, %77
  %indvars.iv = phi i64 [ 0, %.lr.ph ], [ %indvars.iv.next, %77 ]
  %20 = load ptr, ptr %18, align 8
  %21 = getelementptr inbounds nuw %struct.node_info, ptr %20, i64 %indvars.iv
  %22 = getelementptr inbounds nuw i8, ptr %21, i64 176
  %23 = load ptr, ptr %22, align 8
  %.not58 = icmp eq ptr %23, null
  br i1 %.not58, label %77, label %24

24:                                               ; preds = %19
  %25 = load i8, ptr %23, align 1
  %26 = icmp eq i8 %25, 0
  br i1 %26, label %77, label %27

27:                                               ; preds = %24
  br i1 %.not59, label %.thread, label %.preheader

.preheader:                                       ; preds = %27, %29
  %28 = call ptr @list_next(ptr noundef nonnull %.048) #11
  %.not60 = icmp eq ptr %28, null
  br i1 %.not60, label %.thread72, label %29

.thread72:                                        ; preds = %.preheader
  call void @list_iterator_reset(ptr noundef nonnull %.048) #11
  br label %.thread

29:                                               ; preds = %.preheader
  %30 = getelementptr inbounds nuw i8, ptr %28, i64 56
  %31 = load ptr, ptr %30, align 8
  %32 = load ptr, ptr %22, align 8
  %33 = call i32 @xstrcmp(ptr noundef %31, ptr noundef %32) #11
  %.not61 = icmp eq i32 %33, 0
  br i1 %.not61, label %34, label %.preheader, !llvm.loop !15

34:                                               ; preds = %29
  %35 = getelementptr inbounds nuw i8, ptr %28, i64 56
  %36 = call ptr @list_remove(ptr noundef nonnull %.048) #11
  %37 = getelementptr inbounds nuw i8, ptr %28, i64 96
  call void @slurm_xfree(ptr noundef nonnull %37) #11
  call void @slurm_xfree(ptr noundef nonnull %28) #11
  call void @slurm_xfree(ptr noundef nonnull %35) #11
  %38 = getelementptr inbounds nuw i8, ptr %28, i64 88
  call void @slurm_xfree(ptr noundef nonnull %38) #11
  %39 = getelementptr inbounds nuw i8, ptr %28, i64 80
  call void @slurm_xfree(ptr noundef nonnull %39) #11
  call void @list_iterator_reset(ptr noundef nonnull %.048) #11
  br label %41

.thread:                                          ; preds = %27, %.thread72
  %40 = call ptr @slurm_xcalloc(i64 noundef 1, i64 noundef 104, i1 noundef zeroext true, i1 noundef zeroext false, ptr noundef nonnull @.str, i32 noundef 896, ptr noundef nonnull @__func__.create_node_info_list) #11
  br label %41

41:                                               ; preds = %34, %.thread
  %.1 = phi ptr [ %28, %34 ], [ %40, %.thread ]
  %42 = load ptr, ptr @create_node_info_list.info_list, align 8
  call void @list_append(ptr noundef %42, ptr noundef %.1) #11
  %43 = load ptr, ptr %22, align 8
  %44 = call ptr @xstrdup(ptr noundef %43) #11
  %45 = getelementptr inbounds nuw i8, ptr %.1, i64 56
  store ptr %44, ptr %45, align 8
  %46 = getelementptr inbounds nuw i8, ptr %.1, i64 64
  store ptr %21, ptr %46, align 8
  %47 = getelementptr inbounds nuw i8, ptr %.1, i64 72
  %48 = trunc nuw nsw i64 %indvars.iv to i32
  store i32 %48, ptr %47, align 8
  %49 = getelementptr inbounds nuw i8, ptr %21, i64 280
  %50 = load ptr, ptr %49, align 8
  %.not63 = icmp eq ptr %50, null
  br i1 %.not63, label %66, label %51

51:                                               ; preds = %41
  %52 = getelementptr inbounds nuw i8, ptr %21, i64 296
  %53 = load i32, ptr %52, align 8
  %.not64 = icmp eq i32 %53, -2
  br i1 %.not64, label %63, label %54

54:                                               ; preds = %51
  %55 = getelementptr inbounds nuw i8, ptr %21, i64 288
  %56 = load i64, ptr %55, align 8
  %.not65 = icmp eq i64 %56, 0
  br i1 %.not65, label %63, label %57

57:                                               ; preds = %54
  call void @llvm.lifetime.start.p0(i64 8, ptr nonnull %4) #11
  %58 = call ptr @uid_to_string(i32 noundef %53) #11
  store ptr %58, ptr %4, align 8
  call void @slurm_make_time_str(ptr noundef nonnull %55, ptr noundef nonnull %3, i32 noundef 256) #11
  %59 = load ptr, ptr %49, align 8
  %60 = load ptr, ptr %4, align 8
  %61 = call ptr (ptr, ...) @xstrdup_printf(ptr noundef nonnull @.str.1, ptr noundef %59, ptr noundef %60, ptr noundef nonnull %3) #11
  %62 = getelementptr inbounds nuw i8, ptr %.1, i64 80
  store ptr %61, ptr %62, align 8
  call void @slurm_xfree(ptr noundef nonnull %4) #11
  call void @llvm.lifetime.end.p0(i64 8, ptr nonnull %4) #11
  br label %66

63:                                               ; preds = %54, %51
  %64 = call ptr @xstrdup(ptr noundef nonnull %50) #11
  %65 = getelementptr inbounds nuw i8, ptr %.1, i64 80
  store ptr %64, ptr %65, align 8
  br label %66

66:                                               ; preds = %41, %63, %57
  %67 = getelementptr inbounds nuw i8, ptr %21, i64 24
  %68 = load i64, ptr %67, align 8
  %.not67 = icmp eq i64 %68, 0
  br i1 %.not67, label %71, label %69

69:                                               ; preds = %66
  call void @slurm_make_time_str(ptr noundef nonnull %67, ptr noundef nonnull %3, i32 noundef 256) #11
  %70 = call ptr @xstrdup(ptr noundef nonnull %3) #11
  store ptr %70, ptr %.1, align 8
  br label %71

71:                                               ; preds = %69, %66
  %72 = getelementptr inbounds nuw i8, ptr %21, i64 328
  %73 = load i64, ptr %72, align 8
  %.not68 = icmp eq i64 %73, 0
  br i1 %.not68, label %77, label %74

74:                                               ; preds = %71
  call void @slurm_make_time_str(ptr noundef nonnull %72, ptr noundef nonnull %3, i32 noundef 256) #11
  %75 = call ptr @xstrdup(ptr noundef nonnull %3) #11
  %76 = getelementptr inbounds nuw i8, ptr %.1, i64 96
  store ptr %75, ptr %76, align 8
  br label %77

77:                                               ; preds = %71, %74, %19, %24
  %indvars.iv.next = add nuw nsw i64 %indvars.iv, 1
  %78 = load i32, ptr %16, align 8
  %79 = zext i32 %78 to i64
  %80 = icmp samesign ult i64 %indvars.iv.next, %79
  br i1 %80, label %19, label %._crit_edge, !llvm.loop !16

._crit_edge:                                      ; preds = %77, %15
  br i1 %.not56, label %82, label %81

81:                                               ; preds = %._crit_edge
  call void @list_iterator_destroy(ptr noundef %.048) #11
  call void @list_destroy(ptr noundef nonnull %11) #11
  br label %82

82:                                               ; preds = %6, %._crit_edge, %81, %5
  %83 = load ptr, ptr @create_node_info_list.info_list, align 8
  call void @llvm.lifetime.end.p0(i64 256, ptr nonnull %3) #11
  ret ptr %83
}